target datalayout = "e-m:e-p270:32:32-p271:32:32-p272:64:64-i64:64-i128:128-f80:128-n8:16:32:64-S128"
target triple = "x86_64-pc-linux-gnu"

@.str = private unnamed_addr constant [124 x i8] c"generated/home/dtcxzyw/WorkSpace/Projects/compilers/llvm-opt-benchmark/bench/libquic/libquic/boringssl/crypto/rsa/padding.c\00", align 1

; Function Attrs: inlinehint nounwind uwtable
define internal i32 @constant_time_msb(i32 noundef %0) #5 {
  %2 = alloca i32, align 4
  store i32 %0, ptr %2, align 4, !tbaa !11
  %3 = load i32, ptr %2, align 4, !tbaa !11
  %4 = ashr i32 %3, 31
  ret i32 %4
}

; Function Attrs: inlinehint nounwind uwtable
define internal i32 @constant_time_select(i32 noundef %0, i32 noundef %1, i32 noundef %2) #5 {
  %4 = alloca i32, align 4
  %5 = alloca i32, align 4
  %6 = alloca i32, align 4
  store i32 %0, ptr %4, align 4, !tbaa !11
  store i32 %1, ptr %5, align 4, !tbaa !11
  store i32 %2, ptr %6, align 4, !tbaa !11
  %7 = load i32, ptr %4, align 4, !tbaa !11
  %8 = load i32, ptr %5, align 4, !tbaa !11
  %9 = and i32 %7, %8
  %10 = load i32, ptr %4, align 4, !tbaa !11
  %11 = xor i32 %10, -1
  %12 = load i32, ptr %6, align 4, !tbaa !11
  %13 = and i32 %11, %12
  %14 = or i32 %9, %13
  ret i32 %14
}

; Function Attrs: inlinehint nounwind uwtable
define internal i32 @constant_time_eq(i32 noundef %0, i32 noundef %1) #5 {
  %3 = alloca i32, align 4
  %4 = alloca i32, align 4
  store i32 %0, ptr %3, align 4, !tbaa !11
  store i32 %1, ptr %4, align 4, !tbaa !11
  %5 = load i32, ptr %3, align 4, !tbaa !11
  %6 = load i32, ptr %4, align 4, !tbaa !11
  %7 = xor i32 %5, %6
  %8 = call i32 @constant_time_is_zero(i32 noundef %7)
  ret i32 %8
}

; Function Attrs: inlinehint nounwind uwtable
define internal i32 @constant_time_is_zero(i32 noundef %0) #5 {
  %2 = alloca i32, align 4
  store i32 %0, ptr %2, align 4, !tbaa !11
  %3 = load i32, ptr %2, align 4, !tbaa !11
  %4 = xor i32 %3, -1
  %5 = load i32, ptr %2, align 4, !tbaa !11
  %6 = sub i32 %5, 1
  %7 = and i32 %4, %6
  %8 = call i32 @constant_time_msb(i32 noundef %7)
  ret i32 %8
}

; Function Attrs: nounwind uwtable
define hidden i32 @RSA_padding_check_PKCS1_OAEP_mgf1(ptr noundef %0, i32 noundef %1, ptr noundef %2, i32 noundef %3, ptr noundef %4, i32 noundef %5, ptr noundef %6, ptr noundef %7) #0 {
  %9 = alloca i32, align 4
  %10 = alloca ptr, align 8
  %11 = alloca i32, align 4
  %12 = alloca ptr, align 8
  %13 = alloca i32, align 4
  %14 = alloca ptr, align 8
  %15 = alloca i32, align 4
  %16 = alloca ptr, align 8
  %17 = alloca ptr, align 8
  %18 = alloca i32, align 4
  %19 = alloca i32, align 4
  %20 = alloca i32, align 4
  %21 = alloca i32, align 4
  %22 = alloca i32, align 4
  %23 = alloca i32, align 4
  %24 = alloca i32, align 4
  %25 = alloca ptr, align 8
  %26 = alloca ptr, align 8
  %27 = alloca ptr, align 8
  %28 = alloca [64 x i8], align 16
  %29 = alloca [64 x i8], align 16
  %30 = alloca i32, align 4
  %31 = alloca i32, align 4
  %32 = alloca i32, align 4
  store ptr %0, ptr %10, align 8, !tbaa !6
  store i32 %1, ptr %11, align 4, !tbaa !11
  store ptr %2, ptr %12, align 8, !tbaa !6
  store i32 %3, ptr %13, align 4, !tbaa !11
  store ptr %4, ptr %14, align 8, !tbaa !6
  store i32 %5, ptr %15, align 4, !tbaa !11
  store ptr %6, ptr %16, align 8, !tbaa !19
  store ptr %7, ptr %17, align 8, !tbaa !19
  call void @llvm.lifetime.start.p0(i64 4, ptr %18) #9
  call void @llvm.lifetime.start.p0(i64 4, ptr %19) #9
  call void @llvm.lifetime.start.p0(i64 4, ptr %20) #9
  store i32 -1, ptr %20, align 4, !tbaa !11
  call void @llvm.lifetime.start.p0(i64 4, ptr %21) #9
  call void @llvm.lifetime.start.p0(i64 4, ptr %22) #9
  call void @llvm.lifetime.start.p0(i64 4, ptr %23) #9
  call void @llvm.lifetime.start.p0(i64 4, ptr %24) #9
  store i32 0, ptr %24, align 4, !tbaa !11
  call void @llvm.lifetime.start.p0(i64 8, ptr %25) #9
  call void @llvm.lifetime.start.p0(i64 8, ptr %26) #9
  call void @llvm.lifetime.start.p0(i64 8, ptr %27) #9
  store ptr null, ptr %27, align 8, !tbaa !6
  call void @llvm.lifetime.start.p0(i64 64, ptr %28) #9
  call void @llvm.lifetime.start.p0(i64 64, ptr %29) #9
  %33 = load ptr, ptr %16, align 8, !tbaa !19
  %34 = icmp eq ptr %33, null
  br i1 %34, label %35, label %37

35:                                               ; preds = %8
  %36 = call ptr @EVP_sha1()
  store ptr %36, ptr %16, align 8, !tbaa !19
  br label %37

37:                                               ; preds = %35, %8
  %38 = load ptr, ptr %17, align 8, !tbaa !19
  %39 = icmp eq ptr %38, null
  br i1 %39, label %40, label %42

40:                                               ; preds = %37
  %41 = load ptr, ptr %16, align 8, !tbaa !19
  store ptr %41, ptr %17, align 8, !tbaa !19
  br label %42

42:                                               ; preds = %40, %37
  %43 = load ptr, ptr %16, align 8, !tbaa !19
  %44 = call i64 @EVP_MD_size(ptr noundef %43)
  %45 = trunc i64 %44 to i32
  store i32 %45, ptr %21, align 4, !tbaa !11
  %46 = load i32, ptr %13, align 4, !tbaa !11
  %47 = load i32, ptr %21, align 4, !tbaa !11
  %48 = mul i32 2, %47
  %49 = add i32 1, %48
  %50 = add i32 %49, 1
  %51 = icmp ult i32 %46, %50
  br i1 %51, label %52, label %53

52:                                               ; preds = %42
  br label %225

53:                                               ; preds = %42
  %54 = load i32, ptr %13, align 4, !tbaa !11
  %55 = load i32, ptr %21, align 4, !tbaa !11
  %56 = sub i32 %54, %55
  %57 = sub i32 %56, 1
  store i32 %57, ptr %19, align 4, !tbaa !11
  %58 = load i32, ptr %19, align 4, !tbaa !11
  %59 = zext i32 %58 to i64
  %60 = call noalias ptr @malloc(i64 noundef %59) #10
  store ptr %60, ptr %27, align 8, !tbaa !6
  %61 = load ptr, ptr %27, align 8, !tbaa !6
  %62 = icmp eq ptr %61, null
  br i1 %62, label %63, label %64

63:                                               ; preds = %53
  call void @ERR_put_error(i32 noundef 4, i32 noundef 0, i32 noundef 65, ptr noundef @.str, i32 noundef 424)
  br label %226

64:                                               ; preds = %53
  %65 = load ptr, ptr %12, align 8, !tbaa !6
  %66 = getelementptr inbounds i8, ptr %65, i64 1
  store ptr %66, ptr %26, align 8, !tbaa !6
  %67 = load ptr, ptr %12, align 8, !tbaa !6
  %68 = getelementptr inbounds i8, ptr %67, i64 1
  %69 = load i32, ptr %21, align 4, !tbaa !11
  %70 = zext i32 %69 to i64
  %71 = getelementptr inbounds nuw i8, ptr %68, i64 %70
  store ptr %71, ptr %25, align 8, !tbaa !6
  %72 = getelementptr inbounds [64 x i8], ptr %28, i64 0, i64 0
  %73 = load i32, ptr %21, align 4, !tbaa !11
  %74 = load ptr, ptr %25, align 8, !tbaa !6
  %75 = load i32, ptr %19, align 4, !tbaa !11
  %76 = load ptr, ptr %17, align 8, !tbaa !19
  %77 = call i32 @PKCS1_MGF1(ptr noundef %72, i32 noundef %73, ptr noundef %74, i32 noundef %75, ptr noundef %76)
  %78 = icmp ne i32 %77, 0
  br i1 %78, label %79, label %80

79:                                               ; preds = %64
  br label %226

80:                                               ; preds = %64
  store i32 0, ptr %18, align 4, !tbaa !11
  br label %81

81:                                               ; preds = %99, %80
  %82 = load i32, ptr %18, align 4, !tbaa !11
  %83 = load i32, ptr %21, align 4, !tbaa !11
  %84 = icmp ult i32 %82, %83
  br i1 %84, label %85, label %102

85:                                               ; preds = %81
  %86 = load ptr, ptr %26, align 8, !tbaa !6
  %87 = load i32, ptr %18, align 4, !tbaa !11
  %88 = zext i32 %87 to i64
  %89 = getelementptr inbounds nuw i8, ptr %86, i64 %88
  %90 = load i8, ptr %89, align 1, !tbaa !13
  %91 = zext i8 %90 to i32
  %92 = load i32, ptr %18, align 4, !tbaa !11
  %93 = zext i32 %92 to i64
  %94 = getelementptr inbounds nuw [64 x i8], ptr %28, i64 0, i64 %93
  %95 = load i8, ptr %94, align 1, !tbaa !13
  %96 = zext i8 %95 to i32
  %97 = xor i32 %96, %91
  %98 = trunc i32 %97 to i8
  store i8 %98, ptr %94, align 1, !tbaa !13
  br label %99

99:                                               ; preds = %85
  %100 = load i32, ptr %18, align 4, !tbaa !11
  %101 = add i32 %100, 1
  store i32 %101, ptr %18, align 4, !tbaa !11
  br label %81, !llvm.loop !24

102:                                              ; preds = %81
  %103 = load ptr, ptr %27, align 8, !tbaa !6
  %104 = load i32, ptr %19, align 4, !tbaa !11
  %105 = getelementptr inbounds [64 x i8], ptr %28, i64 0, i64 0
  %106 = load i32, ptr %21, align 4, !tbaa !11
  %107 = load ptr, ptr %17, align 8, !tbaa !19
  %108 = call i32 @PKCS1_MGF1(ptr noundef %103, i32 noundef %104, ptr noundef %105, i32 noundef %106, ptr noundef %107)
  %109 = icmp ne i32 %108, 0
  br i1 %109, label %110, label %111

110:                                              ; preds = %102
  br label %226

111:                                              ; preds = %102
  store i32 0, ptr %18, align 4, !tbaa !11
  br label %112

112:                                              ; preds = %131, %111
  %113 = load i32, ptr %18, align 4, !tbaa !11
  %114 = load i32, ptr %19, align 4, !tbaa !11
  %115 = icmp ult i32 %113, %114
  br i1 %115, label %116, label %134

116:                                              ; preds = %112
  %117 = load ptr, ptr %25, align 8, !tbaa !6
  %118 = load i32, ptr %18, align 4, !tbaa !11
  %119 = zext i32 %118 to i64
  %120 = getelementptr inbounds nuw i8, ptr %117, i64 %119
  %121 = load i8, ptr %120, align 1, !tbaa !13
  %122 = zext i8 %121 to i32
  %123 = load ptr, ptr %27, align 8, !tbaa !6
  %124 = load i32, ptr %18, align 4, !tbaa !11
  %125 = zext i32 %124 to i64
  %126 = getelementptr inbounds nuw i8, ptr %123, i64 %125
  %127 = load i8, ptr %126, align 1, !tbaa !13
  %128 = zext i8 %127 to i32
  %129 = xor i32 %128, %122
  %130 = trunc i32 %129 to i8
  store i8 %130, ptr %126, align 1, !tbaa !13
  br label %131

131:                                              ; preds = %116
  %132 = load i32, ptr %18, align 4, !tbaa !11
  %133 = add i32 %132, 1
  store i32 %133, ptr %18, align 4, !tbaa !11
  br label %112, !llvm.loop !25

134:                                              ; preds = %112
  %135 = load ptr, ptr %14, align 8, !tbaa !6
  %136 = load i32, ptr %15, align 4, !tbaa !11
  %137 = zext i32 %136 to i64
  %138 = getelementptr inbounds [64 x i8], ptr %29, i64 0, i64 0
  %139 = load ptr, ptr %16, align 8, !tbaa !19
  %140 = call i32 @EVP_Digest(ptr noundef %135, i64 noundef %137, ptr noundef %138, ptr noundef null, ptr noundef %139, ptr noundef null)
  %141 = icmp ne i32 %140, 0
  br i1 %141, label %143, label %142

142:                                              ; preds = %134
  br label %226

143:                                              ; preds = %134
  %144 = load ptr, ptr %27, align 8, !tbaa !6
  %145 = getelementptr inbounds [64 x i8], ptr %29, i64 0, i64 0
  %146 = load i32, ptr %21, align 4, !tbaa !11
  %147 = zext i32 %146 to i64
  %148 = call i32 @CRYPTO_memcmp(ptr noundef %144, ptr noundef %145, i64 noundef %147)
  %149 = call i32 @constant_time_is_zero(i32 noundef %148)
  %150 = xor i32 %149, -1
  store i32 %150, ptr %22, align 4, !tbaa !11
  %151 = load ptr, ptr %12, align 8, !tbaa !6
  %152 = getelementptr inbounds i8, ptr %151, i64 0
  %153 = load i8, ptr %152, align 1, !tbaa !13
  %154 = zext i8 %153 to i32
  %155 = call i32 @constant_time_is_zero(i32 noundef %154)
  %156 = xor i32 %155, -1
  %157 = load i32, ptr %22, align 4, !tbaa !11
  %158 = or i32 %157, %156
  store i32 %158, ptr %22, align 4, !tbaa !11
  store i32 -1, ptr %23, align 4, !tbaa !11
  %159 = load i32, ptr %21, align 4, !tbaa !11
  store i32 %159, ptr %18, align 4, !tbaa !11
  br label %160

160:                                              ; preds = %194, %143
  %161 = load i32, ptr %18, align 4, !tbaa !11
  %162 = load i32, ptr %19, align 4, !tbaa !11
  %163 = icmp ult i32 %161, %162
  br i1 %163, label %164, label %197

164:                                              ; preds = %160
  call void @llvm.lifetime.start.p0(i64 4, ptr %30) #9
  %165 = load ptr, ptr %27, align 8, !tbaa !6
  %166 = load i32, ptr %18, align 4, !tbaa !11
  %167 = zext i32 %166 to i64
  %168 = getelementptr inbounds nuw i8, ptr %165, i64 %167
  %169 = load i8, ptr %168, align 1, !tbaa !13
  %170 = zext i8 %169 to i32
  %171 = call i32 @constant_time_eq(i32 noundef %170, i32 noundef 1)
  store i32 %171, ptr %30, align 4, !tbaa !11
  call void @llvm.lifetime.start.p0(i64 4, ptr %31) #9
  %172 = load ptr, ptr %27, align 8, !tbaa !6
  %173 = load i32, ptr %18, align 4, !tbaa !11
  %174 = zext i32 %173 to i64
  %175 = getelementptr inbounds nuw i8, ptr %172, i64 %174
  %176 = load i8, ptr %175, align 1, !tbaa !13
  %177 = zext i8 %176 to i32
  %178 = call i32 @constant_time_eq(i32 noundef %177, i32 noundef 0)
  store i32 %178, ptr %31, align 4, !tbaa !11
  %179 = load i32, ptr %23, align 4, !tbaa !11
  %180 = load i32, ptr %30, align 4, !tbaa !11
  %181 = and i32 %179, %180
  %182 = load i32, ptr %18, align 4, !tbaa !11
  %183 = load i32, ptr %24, align 4, !tbaa !11
  %184 = call i32 @constant_time_select(i32 noundef %181, i32 noundef %182, i32 noundef %183)
  store i32 %184, ptr %24, align 4, !tbaa !11
  %185 = load i32, ptr %30, align 4, !tbaa !11
  %186 = load i32, ptr %23, align 4, !tbaa !11
  %187 = call i32 @constant_time_select(i32 noundef %185, i32 noundef 0, i32 noundef %186)
  store i32 %187, ptr %23, align 4, !tbaa !11
  %188 = load i32, ptr %23, align 4, !tbaa !11
  %189 = load i32, ptr %31, align 4, !tbaa !11
  %190 = xor i32 %189, -1
  %191 = and i32 %188, %190
  %192 = load i32, ptr %22, align 4, !tbaa !11
  %193 = or i32 %192, %191
  store i32 %193, ptr %22, align 4, !tbaa !11
  call void @llvm.lifetime.end.p0(i64 4, ptr %31) #9
  call void @llvm.lifetime.end.p0(i64 4, ptr %30) #9
  br label %194

194:                                              ; preds = %164
  %195 = load i32, ptr %18, align 4, !tbaa !11
  %196 = add i32 %195, 1
  store i32 %196, ptr %18, align 4, !tbaa !11
  br label %160, !llvm.loop !26

197:                                              ; preds = %160
  %198 = load i32, ptr %23, align 4, !tbaa !11
  %199 = load i32, ptr %22, align 4, !tbaa !11
  %200 = or i32 %199, %198
  store i32 %200, ptr %22, align 4, !tbaa !11
  %201 = load i32, ptr %22, align 4, !tbaa !11
  %202 = icmp ne i32 %201, 0
  br i1 %202, label %203, label %204

203:                                              ; preds = %197
  br label %225

204:                                              ; preds = %197
  %205 = load i32, ptr %24, align 4, !tbaa !11
  %206 = add i32 %205, 1
  store i32 %206, ptr %24, align 4, !tbaa !11
  %207 = load i32, ptr %19, align 4, !tbaa !11
  %208 = load i32, ptr %24, align 4, !tbaa !11
  %209 = sub i32 %207, %208
  store i32 %209, ptr %20, align 4, !tbaa !11
  %210 = load i32, ptr %11, align 4, !tbaa !11
  %211 = load i32, ptr %20, align 4, !tbaa !11
  %212 = icmp ult i32 %210, %211
  br i1 %212, label %213, label %214

213:                                              ; preds = %204
  call void @ERR_put_error(i32 noundef 4, i32 noundef 0, i32 noundef 113, ptr noundef @.str, i32 noundef 472)
  store i32 -1, ptr %20, align 4, !tbaa !11
  br label %222

214:                                              ; preds = %204
  %215 = load ptr, ptr %10, align 8, !tbaa !6
  %216 = load ptr, ptr %27, align 8, !tbaa !6
  %217 = load i32, ptr %24, align 4, !tbaa !11
  %218 = zext i32 %217 to i64
  %219 = getelementptr inbounds nuw i8, ptr %216, i64 %218
  %220 = load i32, ptr %20, align 4, !tbaa !11
  %221 = zext i32 %220 to i64
  call void @llvm.memcpy.p0.p0.i64(ptr align 1 %215, ptr align 1 %219, i64 %221, i1 false)
  br label %222

222:                                              ; preds = %214, %213
  %223 = load ptr, ptr %27, align 8, !tbaa !6
  call void @free(ptr noundef %223) #9
  %224 = load i32, ptr %20, align 4, !tbaa !11
  store i32 %224, ptr %9, align 4
  store i32 1, ptr %32, align 4
  br label %228

225:                                              ; preds = %203, %52
  call void @ERR_put_error(i32 noundef 4, i32 noundef 0, i32 noundef 133, ptr noundef @.str, i32 noundef 484)
  br label %226

226:                                              ; preds = %225, %142, %110, %79, %63
  %227 = load ptr, ptr %27, align 8, !tbaa !6
  call void @free(ptr noundef %227) #9
  store i32 -1, ptr %9, align 4
  store i32 1, ptr %32, align 4
  br label %228

228:                                              ; preds = %226, %222
  call void @llvm.lifetime.end.p0(i64 64, ptr %29) #9
  call void @llvm.lifetime.end.p0(i64 64, ptr %28) #9
  call void @llvm.lifetime.end.p0(i64 8, ptr %27) #9
  call void @llvm.lifetime.end.p0(i64 8, ptr %26) #9
  call void @llvm.lifetime.end.p0(i64 8, ptr %25) #9
  call void @llvm.lifetime.end.p0(i64 4, ptr %24) #9
  call void @llvm.lifetime.end.p0(i64 4, ptr %23) #9
  call void @llvm.lifetime.end.p0(i64 4, ptr %22) #9
  call void @llvm.lifetime.end.p0(i64 4, ptr %21) #9
  call void @llvm.lifetime.end.p0(i64 4, ptr %20) #9
  call void @llvm.lifetime.end.p0(i64 4, ptr %19) #9
  call void @llvm.lifetime.end.p0(i64 4, ptr %18) #9
  %229 = load i32, ptr %9, align 4
  ret i32 %229
}