; Function Attrs: nounwind uwtable
define hidden i32 @RSA_padding_check_PKCS1_OAEP_mgf1(ptr noundef writeonly captures(none) %0, i32 noundef %1, ptr noundef %2, i32 noundef %3, ptr noundef %4, i32 noundef %5, ptr noundef %6, ptr noundef %7) local_unnamed_addr #0 {
  %9 = alloca [64 x i8], align 16
  %10 = alloca [64 x i8], align 16
  call void @llvm.lifetime.start.p0(i64 64, ptr nonnull %9) #8
  call void @llvm.lifetime.start.p0(i64 64, ptr nonnull %10) #8
  %11 = icmp eq ptr %6, null
  br i1 %11, label %12, label %14

12:                                               ; preds = %8
  %13 = tail call ptr @EVP_sha1() #8
  br label %14

14:                                               ; preds = %12, %8
  %.073 = phi ptr [ %13, %12 ], [ %6, %8 ]
  %15 = icmp eq ptr %7, null
  %spec.select = select i1 %15, ptr %.073, ptr %7
  %16 = tail call i64 @EVP_MD_size(ptr noundef %.073) #8
  %17 = trunc i64 %16 to i32
  %18 = shl i32 %17, 1
  %19 = add i32 %18, 2
  %20 = icmp ult i32 %3, %19
  br i1 %20, label %75, label %21

21:                                               ; preds = %14
  %22 = xor i32 %17, -1
  %23 = add i32 %3, %22
  %24 = zext i32 %23 to i64
  %25 = tail call noalias ptr @malloc(i64 noundef %24) #9
  %26 = icmp eq ptr %25, null
  br i1 %26, label %27, label %28

27:                                               ; preds = %21
  tail call void @ERR_put_error(i32 noundef 4, i32 noundef 0, i32 noundef 65, ptr noundef nonnull @.str, i32 noundef 424) #8
  br label %76

28:                                               ; preds = %21
  %29 = getelementptr inbounds nuw i8, ptr %2, i64 1
  %30 = and i64 %16, 4294967295
  %31 = getelementptr inbounds nuw i8, ptr %29, i64 %30
  %32 = call fastcc i32 @PKCS1_MGF1(ptr noundef nonnull %9, i32 noundef %17, ptr noundef nonnull %31, i32 noundef %23, ptr noundef %spec.select)
  %.not = icmp eq i32 %32, 0
  br i1 %.not, label %.preheader96, label %76

.preheader96:                                     ; preds = %28
  %.not110 = icmp eq i32 %17, 0
  br i1 %.not110, label %._crit_edge, label %.lr.ph.preheader

.lr.ph.preheader:                                 ; preds = %.preheader96
  %wide.trip.count = and i64 %16, 4294967295
  br label %.lr.ph

.lr.ph:                                           ; preds = %.lr.ph.preheader, %.lr.ph
  %indvars.iv = phi i64 [ 0, %.lr.ph.preheader ], [ %indvars.iv.next, %.lr.ph ]
  %33 = getelementptr inbounds nuw i8, ptr %29, i64 %indvars.iv
  %34 = load i8, ptr %33, align 1, !tbaa !6
  %35 = getelementptr inbounds nuw [64 x i8], ptr %9, i64 0, i64 %indvars.iv
  %36 = load i8, ptr %35, align 1, !tbaa !6
  %37 = xor i8 %36, %34
  store i8 %37, ptr %35, align 1, !tbaa !6
  %indvars.iv.next = add nuw nsw i64 %indvars.iv, 1
  %exitcond.not = icmp eq i64 %indvars.iv.next, %wide.trip.count
  br i1 %exitcond.not, label %._crit_edge, label %.lr.ph, !llvm.loop !17

._crit_edge:                                      ; preds = %.lr.ph, %.preheader96
  %38 = call fastcc i32 @PKCS1_MGF1(ptr noundef nonnull %25, i32 noundef %23, ptr noundef nonnull %9, i32 noundef %17, ptr noundef %spec.select)
  %.not90 = icmp eq i32 %38, 0
  br i1 %.not90, label %.preheader, label %76

.preheader:                                       ; preds = %._crit_edge
  %.not111 = icmp eq i32 %23, 0
  br i1 %.not111, label %._crit_edge100, label %.lr.ph99

.lr.ph99:                                         ; preds = %.preheader, %.lr.ph99
  %indvars.iv115 = phi i64 [ %indvars.iv.next116, %.lr.ph99 ], [ 0, %.preheader ]
  %39 = getelementptr inbounds nuw i8, ptr %31, i64 %indvars.iv115
  %40 = load i8, ptr %39, align 1, !tbaa !6
  %41 = getelementptr inbounds nuw i8, ptr %25, i64 %indvars.iv115
  %42 = load i8, ptr %41, align 1, !tbaa !6
  %43 = xor i8 %42, %40
  store i8 %43, ptr %41, align 1, !tbaa !6
  %indvars.iv.next116 = add nuw nsw i64 %indvars.iv115, 1
  %exitcond119.not = icmp eq i64 %indvars.iv.next116, %24
  br i1 %exitcond119.not, label %._crit_edge100, label %.lr.ph99, !llvm.loop !18

._crit_edge100:                                   ; preds = %.lr.ph99, %.preheader
  %44 = zext i32 %5 to i64
  %45 = call i32 @EVP_Digest(ptr noundef %4, i64 noundef %44, ptr noundef nonnull %10, ptr noundef null, ptr noundef %.073, ptr noundef null) #8
  %.not91 = icmp eq i32 %45, 0
  br i1 %.not91, label %76, label %46

46:                                               ; preds = %._crit_edge100
  %47 = call i32 @CRYPTO_memcmp(ptr noundef nonnull %25, ptr noundef nonnull %10, i64 noundef %30) #8
  %48 = load i8, ptr %2, align 1, !tbaa !6
  %49 = icmp ne i32 %47, 0
  %50 = icmp ne i8 %48, 0
  %51 = or i1 %49, %50
  %52 = sext i1 %51 to i32
  %53 = icmp ugt i32 %23, %17
  br i1 %53, label %.lr.ph106, label %._crit_edge107

.lr.ph106:                                        ; preds = %46, %.lr.ph106
  %indvars.iv120 = phi i64 [ %indvars.iv.next121, %.lr.ph106 ], [ %30, %46 ]
  %.078103 = phi i32 [ %61, %.lr.ph106 ], [ 0, %46 ]
  %.079102 = phi i32 [ %62, %.lr.ph106 ], [ -1, %46 ]
  %.080101 = phi i32 [ %64, %.lr.ph106 ], [ %52, %46 ]
  %54 = getelementptr inbounds nuw i8, ptr %25, i64 %indvars.iv120
  %55 = load i8, ptr %54, align 1, !tbaa !6
  %.not94 = icmp eq i8 %55, 1
  %56 = select i1 %.not94, i32 %.079102, i32 0
  %57 = trunc nuw i64 %indvars.iv120 to i32
  %58 = and i32 %56, %57
  %59 = xor i32 %56, -1
  %60 = and i32 %.078103, %59
  %61 = or disjoint i32 %60, %58
  %62 = select i1 %.not94, i32 0, i32 %.079102
  %.not95 = icmp eq i8 %55, 0
  %63 = select i1 %.not95, i32 0, i32 %62
  %64 = or i32 %63, %.080101
  %indvars.iv.next121 = add nuw nsw i64 %indvars.iv120, 1
  %exitcond124.not = icmp eq i64 %indvars.iv.next121, %24
  br i1 %exitcond124.not, label %._crit_edge107.loopexit, label %.lr.ph106, !llvm.loop !19

._crit_edge107.loopexit:                          ; preds = %.lr.ph106
  %65 = add i32 %61, 1
  br label %._crit_edge107

._crit_edge107:                                   ; preds = %._crit_edge107.loopexit, %46
  %.080.lcssa = phi i32 [ %52, %46 ], [ %64, %._crit_edge107.loopexit ]
  %.079.lcssa = phi i32 [ -1, %46 ], [ %62, %._crit_edge107.loopexit ]
  %.078.lcssa = phi i32 [ 1, %46 ], [ %65, %._crit_edge107.loopexit ]
  %66 = or i32 %.079.lcssa, %.080.lcssa
  %.not92 = icmp eq i32 %66, 0
  br i1 %.not92, label %67, label %75

67:                                               ; preds = %._crit_edge107
  %68 = sub i32 %23, %.078.lcssa
  %69 = icmp ult i32 %1, %68
  br i1 %69, label %70, label %71

70:                                               ; preds = %67
  call void @ERR_put_error(i32 noundef 4, i32 noundef 0, i32 noundef 113, ptr noundef nonnull @.str, i32 noundef 472) #8
  br label %76

71:                                               ; preds = %67
  %72 = zext i32 %.078.lcssa to i64
  %73 = getelementptr inbounds nuw i8, ptr %25, i64 %72
  %74 = zext i32 %68 to i64
  call void @llvm.memcpy.p0.p0.i64(ptr align 1 %0, ptr nonnull align 1 %73, i64 %74, i1 false)
  br label %76

75:                                               ; preds = %._crit_edge107, %14
  %.074 = phi ptr [ null, %14 ], [ %25, %._crit_edge107 ]
  call void @ERR_put_error(i32 noundef 4, i32 noundef 0, i32 noundef 133, ptr noundef nonnull @.str, i32 noundef 484) #8
  br label %76

76:                                               ; preds = %27, %75, %28, %._crit_edge, %._crit_edge100, %70, %71
  %.1.sink = phi ptr [ %25, %71 ], [ %25, %70 ], [ %.074, %75 ], [ null, %27 ], [ %25, %28 ], [ %25, %._crit_edge ], [ %25, %._crit_edge100 ]
  %.0 = phi i32 [ %68, %71 ], [ -1, %70 ], [ -1, %75 ], [ -1, %27 ], [ -1, %28 ], [ -1, %._crit_edge ], [ -1, %._crit_edge100 ]
  call void @free(ptr noundef %.1.sink) #8
  call void @llvm.lifetime.end.p0(i64 64, ptr nonnull %10) #8
  call void @llvm.lifetime.end.p0(i64 64, ptr nonnull %9) #8
  ret i32 %.0
}